target datalayout = "e-m:e-p270:32:32-p271:32:32-p272:64:64-i64:64-i128:128-f80:128-n8:16:32:64-S128"
target triple = "x86_64-pc-linux-gnu"

%struct.tlsinfo = type { i32, i8, i8, ptr }

@proto_http = internal global i32 0, align 4
@.str.532 = private unnamed_addr constant [8 x i8] c"HTTP/1.\00", align 1

; Function Attrs: null_pointer_is_valid sspstrong uwtable
define internal i32 @dissect_http_tls(ptr noundef %0, ptr noundef %1, ptr noundef %2, ptr noundef %3) #0 {
  %5 = alloca ptr, align 8
  %6 = alloca ptr, align 8
  %7 = alloca ptr, align 8
  %8 = alloca ptr, align 8
  %9 = alloca ptr, align 8
  %10 = alloca ptr, align 8
  %11 = alloca i8, align 1
  %12 = alloca ptr, align 8
  store ptr %0, ptr %5, align 8
  store ptr %1, ptr %6, align 8
  store ptr %2, ptr %7, align 8
  store ptr %3, ptr %8, align 8
  call void @llvm.lifetime.start.p0(i64 8, ptr %9) #19
  call void @llvm.lifetime.start.p0(i64 8, ptr %10) #19
  call void @llvm.lifetime.start.p0(i64 1, ptr %11) #19
  %13 = load ptr, ptr %6, align 8
  %14 = call ptr @get_http_conversation_data(ptr noundef %13, ptr noundef %9)
  store ptr %14, ptr %10, align 8
  call void @llvm.lifetime.start.p0(i64 8, ptr %12) #19
  %15 = load ptr, ptr %8, align 8
  store ptr %15, ptr %12, align 8
  %16 = load ptr, ptr %12, align 8
  %17 = icmp ne ptr %16, null
  br i1 %17, label %18, label %23

18:                                               ; preds = %4
  %19 = load ptr, ptr %12, align 8
  %20 = getelementptr inbounds nuw %struct.tlsinfo, ptr %19, i32 0, i32 2
  %21 = load i8, ptr %20, align 1, !range !9, !noundef !10
  %22 = trunc i8 %21 to i1
  br label %23

23:                                               ; preds = %18, %4
  %24 = phi i1 [ false, %4 ], [ %22, %18 ]
  %25 = zext i1 %24 to i8
  store i8 %25, ptr %11, align 1
  %26 = load ptr, ptr %5, align 8
  %27 = load ptr, ptr %6, align 8
  %28 = load ptr, ptr %7, align 8
  %29 = load ptr, ptr %10, align 8
  %30 = load i8, ptr %11, align 1, !range !9, !noundef !10
  %31 = trunc i8 %30 to i1
  %32 = load ptr, ptr %12, align 8
  %33 = icmp ne ptr %32, null
  br i1 %33, label %34, label %37

34:                                               ; preds = %23
  %35 = load ptr, ptr %12, align 8
  %36 = getelementptr inbounds nuw %struct.tlsinfo, ptr %35, i32 0, i32 0
  br label %38

37:                                               ; preds = %23
  br label %38

38:                                               ; preds = %37, %34
  %39 = phi ptr [ %36, %34 ], [ null, %37 ]
  %40 = call i32 @dissect_http_on_stream(ptr noundef %26, ptr noundef %27, ptr noundef %28, ptr noundef %29, i1 noundef zeroext %31, ptr noundef %39)
  call void @llvm.lifetime.end.p0(i64 8, ptr %12) #19
  call void @llvm.lifetime.end.p0(i64 1, ptr %11) #19
  call void @llvm.lifetime.end.p0(i64 8, ptr %10) #19
  call void @llvm.lifetime.end.p0(i64 8, ptr %9) #19
  ret i32 %40
}

; Function Attrs: null_pointer_is_valid sspstrong uwtable
define internal zeroext i1 @dissect_http_heur_tls(ptr noundef %0, ptr noundef %1, ptr noundef %2, ptr noundef %3) #0 {
  %5 = alloca i1, align 1
  %6 = alloca ptr, align 8
  %7 = alloca ptr, align 8
  %8 = alloca ptr, align 8
  %9 = alloca ptr, align 8
  %10 = alloca i32, align 4
  %11 = alloca i32, align 4
  %12 = alloca i32, align 4
  %13 = alloca ptr, align 8
  %14 = alloca ptr, align 8
  %15 = alloca i32, align 4
  store ptr %0, ptr %6, align 8
  store ptr %1, ptr %7, align 8
  store ptr %2, ptr %8, align 8
  store ptr %3, ptr %9, align 8
  call void @llvm.lifetime.start.p0(i64 4, ptr %10) #19
  store i32 0, ptr %10, align 4
  call void @llvm.lifetime.start.p0(i64 4, ptr %11) #19
  call void @llvm.lifetime.start.p0(i64 4, ptr %12) #19
  call void @llvm.lifetime.start.p0(i64 8, ptr %13) #19
  call void @llvm.lifetime.start.p0(i64 8, ptr %14) #19
  %16 = load ptr, ptr %7, align 8
  %17 = call ptr @find_or_create_conversation(ptr noundef %16)
  store ptr %17, ptr %13, align 8
  %18 = load ptr, ptr %13, align 8
  %19 = load i32, ptr @proto_http, align 4
  %20 = call ptr @conversation_get_proto_data(ptr noundef %18, i32 noundef %19)
  store ptr %20, ptr %14, align 8
  %21 = load ptr, ptr %14, align 8
  %22 = icmp ne ptr %21, null
  br i1 %22, label %23, label %29

23:                                               ; preds = %4
  %24 = load ptr, ptr %6, align 8
  %25 = load ptr, ptr %7, align 8
  %26 = load ptr, ptr %8, align 8
  %27 = load ptr, ptr %9, align 8
  %28 = call i32 @dissect_http_tls(ptr noundef %24, ptr noundef %25, ptr noundef %26, ptr noundef %27)
  store i1 true, ptr %5, align 1
  store i32 1, ptr %15, align 4
  br label %56

29:                                               ; preds = %4
  %30 = load ptr, ptr %6, align 8
  %31 = load i32, ptr %10, align 4
  %32 = call i32 @tvb_find_line_end(ptr noundef %30, i32 noundef %31, i32 noundef -1, ptr noundef %11, i1 noundef zeroext true)
  store i32 %32, ptr %12, align 4
  %33 = load i32, ptr %12, align 4
  %34 = icmp eq i32 %33, -1
  br i1 %34, label %38, label %35

35:                                               ; preds = %29
  %36 = load i32, ptr %12, align 4
  %37 = icmp eq i32 %36, 8
  br i1 %37, label %38, label %39

38:                                               ; preds = %35, %29
  store i1 false, ptr %5, align 1
  store i32 1, ptr %15, align 4
  br label %56

39:                                               ; preds = %35
  %40 = load ptr, ptr %6, align 8
  %41 = load i32, ptr %12, align 4
  %42 = sub i32 %41, 8
  %43 = call i32 @tvb_strncaseeql(ptr noundef %40, i32 noundef %42, ptr noundef @.str.532, i64 noundef 7)
  %44 = icmp ne i32 %43, 0
  br i1 %44, label %45, label %50

45:                                               ; preds = %39
  %46 = load ptr, ptr %6, align 8
  %47 = call i32 @tvb_strncaseeql(ptr noundef %46, i32 noundef 0, ptr noundef @.str.532, i64 noundef 7)
  %48 = icmp ne i32 %47, 0
  br i1 %48, label %49, label %50

49:                                               ; preds = %45
  store i1 false, ptr %5, align 1
  store i32 1, ptr %15, align 4
  br label %56

50:                                               ; preds = %45, %39
  %51 = load ptr, ptr %6, align 8
  %52 = load ptr, ptr %7, align 8
  %53 = load ptr, ptr %8, align 8
  %54 = load ptr, ptr %9, align 8
  %55 = call i32 @dissect_http_tls(ptr noundef %51, ptr noundef %52, ptr noundef %53, ptr noundef %54)
  store i1 true, ptr %5, align 1
  store i32 1, ptr %15, align 4
  br label %56

56:                                               ; preds = %50, %49, %38, %23
  call void @llvm.lifetime.end.p0(i64 8, ptr %14) #19
  call void @llvm.lifetime.end.p0(i64 8, ptr %13) #19
  call void @llvm.lifetime.end.p0(i64 4, ptr %12) #19
  call void @llvm.lifetime.end.p0(i64 4, ptr %11) #19
  call void @llvm.lifetime.end.p0(i64 4, ptr %10) #19
  %57 = load i1, ptr %5, align 1
  ret i1 %57
}