; Function Attrs: null_pointer_is_valid sspstrong uwtable
define internal noundef zeroext i1 @dissect_http_heur_tls(ptr noundef %0, ptr noundef %1, ptr noundef %2, ptr noundef captures(address_is_null) %3) #0 {
  %5 = alloca ptr, align 8
  %6 = alloca ptr, align 8
  %7 = alloca i32, align 4
  call void @llvm.lifetime.start.p0(i64 4, ptr nonnull %7) #21
  %8 = tail call ptr @find_or_create_conversation(ptr noundef %1)
  %9 = load i32, ptr @proto_http, align 4
  %10 = tail call ptr @conversation_get_proto_data(ptr noundef %8, i32 noundef %9)
  %.not = icmp eq ptr %10, null
  br i1 %.not, label %18, label %11

11:                                               ; preds = %4
  call void @llvm.lifetime.start.p0(i64 8, ptr nonnull %6) #21
  %12 = call fastcc ptr @get_http_conversation_data(ptr noundef %1, ptr noundef nonnull %6)
  %.not.i = icmp eq ptr %3, null
  br i1 %.not.i, label %.split.i, label %.split11.i

.split.i:                                         ; preds = %11
  %13 = tail call fastcc i32 @dissect_http_on_stream(ptr noundef %0, ptr noundef %1, ptr noundef %2, ptr noundef %12, i1 noundef zeroext false, ptr noundef null)
  br label %dissect_http_tls.exit

.split11.i:                                       ; preds = %11
  %14 = getelementptr inbounds nuw i8, ptr %3, i64 5
  %15 = load i8, ptr %14, align 1, !range !9, !noundef !10
  %16 = trunc nuw i8 %15 to i1
  %17 = tail call fastcc i32 @dissect_http_on_stream(ptr noundef %0, ptr noundef %1, ptr noundef %2, ptr noundef %12, i1 noundef zeroext %16, ptr noundef nonnull %3)
  br label %dissect_http_tls.exit

dissect_http_tls.exit:                            ; preds = %.split.i, %.split11.i
  call void @llvm.lifetime.end.p0(i64 8, ptr nonnull %6) #21
  br label %32

18:                                               ; preds = %4
  %19 = call i32 @tvb_find_line_end(ptr noundef %0, i32 noundef 0, i32 noundef -1, ptr noundef nonnull %7, i1 noundef zeroext true)
  switch i32 %19, label %20 [
    i32 -1, label %32
    i32 8, label %32
  ]

20:                                               ; preds = %18
  %21 = add i32 %19, -8
  %22 = call i32 @tvb_strncaseeql(ptr noundef %0, i32 noundef %21, ptr noundef nonnull @.str.532, i64 noundef 7)
  %.not20 = icmp eq i32 %22, 0
  br i1 %.not20, label %25, label %23

23:                                               ; preds = %20
  %24 = call i32 @tvb_strncaseeql(ptr noundef %0, i32 noundef 0, ptr noundef nonnull @.str.532, i64 noundef 7)
  %.not21 = icmp eq i32 %24, 0
  br i1 %.not21, label %25, label %32

25:                                               ; preds = %23, %20
  call void @llvm.lifetime.start.p0(i64 8, ptr nonnull %5) #21
  %26 = call fastcc ptr @get_http_conversation_data(ptr noundef %1, ptr noundef nonnull %5)
  %.not.i22 = icmp eq ptr %3, null
  br i1 %.not.i22, label %.split.i25, label %.split11.i23

.split.i25:                                       ; preds = %25
  %27 = call fastcc i32 @dissect_http_on_stream(ptr noundef %0, ptr noundef %1, ptr noundef %2, ptr noundef %26, i1 noundef zeroext false, ptr noundef null)
  br label %dissect_http_tls.exit26

.split11.i23:                                     ; preds = %25
  %28 = getelementptr inbounds nuw i8, ptr %3, i64 5
  %29 = load i8, ptr %28, align 1, !range !9, !noundef !10
  %30 = trunc nuw i8 %29 to i1
  %31 = call fastcc i32 @dissect_http_on_stream(ptr noundef %0, ptr noundef %1, ptr noundef %2, ptr noundef %26, i1 noundef zeroext %30, ptr noundef nonnull %3)
  br label %dissect_http_tls.exit26

dissect_http_tls.exit26:                          ; preds = %.split.i25, %.split11.i23
  call void @llvm.lifetime.end.p0(i64 8, ptr nonnull %5) #21
  br label %32

32:                                               ; preds = %23, %18, %18, %dissect_http_tls.exit26, %dissect_http_tls.exit
  %.0 = phi i1 [ true, %dissect_http_tls.exit ], [ true, %dissect_http_tls.exit26 ], [ false, %18 ], [ false, %18 ], [ false, %23 ]
  call void @llvm.lifetime.end.p0(i64 4, ptr nonnull %7) #21
  ret i1 %.0
}